target datalayout = "e-m:e-p270:32:32-p271:32:32-p272:64:64-i64:64-i128:128-f80:128-n8:16:32:64-S128"
target triple = "x86_64-pc-linux-gnu"

%"struct.std::__detail::_Hash_node_base" = type { ptr }
%"struct.std::__detail::_Prime_rehash_policy" = type { float, i64 }
%"struct.Luau::NotNull" = type { ptr }
%"struct.Luau::NotNull.35" = type { ptr }
%"struct.Luau::NotNull.36" = type { ptr }
%"struct.Luau::NotNull.37" = type { ptr }
%"struct.Luau::NotNull.38" = type { ptr }
%"struct.Luau::TypeChecker2" = type { %"struct.Luau::NotNull", %"struct.Luau::NotNull.35", %"struct.Luau::NotNull.36", ptr, %"struct.Luau::NotNull.38", %"struct.Luau::NotNull.39", ptr, ptr, i32, %"class.std::vector.40", %"class.std::vector.45", %"class.Luau::DenseHashSet", %"class.Luau::Normalizer", %"struct.Luau::Subtyping", %"struct.Luau::NotNull.125", %"class.Luau::DenseHashSet.126" }
%"struct.Luau::NotNull.39" = type { ptr }
%"class.std::vector.40" = type { %"struct.std::_Vector_base.41" }
%"struct.std::_Vector_base.41" = type { %"struct.std::_Vector_base<Luau::NotNull<Luau::Scope>, std::allocator<Luau::NotNull<Luau::Scope>>>::_Vector_impl" }
%"struct.std::_Vector_base<Luau::NotNull<Luau::Scope>, std::allocator<Luau::NotNull<Luau::Scope>>>::_Vector_impl" = type { %"struct.std::_Vector_base<Luau::NotNull<Luau::Scope>, std::allocator<Luau::NotNull<Luau::Scope>>>::_Vector_impl_data" }
%"struct.std::_Vector_base<Luau::NotNull<Luau::Scope>, std::allocator<Luau::NotNull<Luau::Scope>>>::_Vector_impl_data" = type { ptr, ptr, ptr }
%"class.std::vector.45" = type { %"struct.std::_Vector_base.46" }
%"struct.std::_Vector_base.46" = type { %"struct.std::_Vector_base<const Luau::Type *, std::allocator<const Luau::Type *>>::_Vector_impl" }
%"struct.std::_Vector_base<const Luau::Type *, std::allocator<const Luau::Type *>>::_Vector_impl" = type { %"struct.std::_Vector_base<const Luau::Type *, std::allocator<const Luau::Type *>>::_Vector_impl_data" }
%"struct.std::_Vector_base<const Luau::Type *, std::allocator<const Luau::Type *>>::_Vector_impl_data" = type { ptr, ptr, ptr }
%"class.Luau::DenseHashSet" = type { %"class.Luau::detail::DenseHashTable" }
%"class.Luau::detail::DenseHashTable" = type <{ ptr, i64, i64, ptr, [8 x i8] }>
%"class.Luau::Normalizer" = type <{ %"class.std::unordered_map.50", %"class.std::unordered_map.70", %"class.std::unordered_map.70", %"class.std::unordered_map.88", %"class.Luau::DenseHashMap", %"class.Luau::DenseHashMap.104", ptr, %"struct.Luau::NotNull", %"struct.Luau::NotNull.37", i8, [7 x i8] }>
%"class.std::unordered_map.50" = type { %"class.std::_Hashtable.51" }
%"class.std::_Hashtable.51" = type { ptr, i64, %"struct.std::__detail::_Hash_node_base", i64, %"struct.std::__detail::_Prime_rehash_policy", ptr }
%"class.std::unordered_map.70" = type { %"class.std::_Hashtable.71" }
%"class.std::_Hashtable.71" = type { ptr, i64, %"struct.std::__detail::_Hash_node_base", i64, %"struct.std::__detail::_Prime_rehash_policy", ptr }
%"class.std::unordered_map.88" = type { %"class.std::_Hashtable.89" }
%"class.std::_Hashtable.89" = type { ptr, i64, %"struct.std::__detail::_Hash_node_base", i64, %"struct.std::__detail::_Prime_rehash_policy", ptr }
%"class.Luau::DenseHashMap" = type { %"class.Luau::detail::DenseHashTable.102" }
%"class.Luau::detail::DenseHashTable.102" = type <{ ptr, i64, i64, ptr, [8 x i8] }>
%"class.Luau::DenseHashMap.104" = type { %"class.Luau::detail::DenseHashTable.105" }
%"class.Luau::detail::DenseHashTable.105" = type <{ ptr, i64, i64, %"struct.std::pair.106", [8 x i8] }>
%"struct.std::pair.106" = type { ptr, ptr }
%"struct.Luau::Subtyping" = type { %"struct.Luau::NotNull", %"struct.Luau::NotNull.109", %"struct.Luau::NotNull.35", %"struct.Luau::NotNull.110", %"struct.Luau::NotNull.36", %"struct.Luau::NotNull.39", %"struct.Luau::TypeCheckLimits", i32, %"class.Luau::Set", %"class.Luau::DenseHashMap.122" }
%"struct.Luau::NotNull.109" = type { ptr }
%"struct.Luau::NotNull.110" = type { ptr }
%"struct.Luau::TypeCheckLimits" = type { %"class.std::optional", %"class.std::optional.111", %"class.std::optional.111", %"class.std::shared_ptr" }
%"class.std::optional" = type { %"struct.std::_Optional_base" }
%"struct.std::_Optional_base" = type { %"struct.std::_Optional_payload" }
%"struct.std::_Optional_payload" = type { %"struct.std::_Optional_payload_base.base", [7 x i8] }
%"struct.std::_Optional_payload_base.base" = type <{ %"union.std::_Optional_payload_base<double>::_Storage", i8 }>
%"union.std::_Optional_payload_base<double>::_Storage" = type { double }
%"class.std::optional.111" = type { %"struct.std::_Optional_base.112" }
%"struct.std::_Optional_base.112" = type { %"struct.std::_Optional_payload.114" }
%"struct.std::_Optional_payload.114" = type { %"struct.std::_Optional_payload_base.base.116", [3 x i8] }
%"struct.std::_Optional_payload_base.base.116" = type <{ %"union.std::_Optional_payload_base<int>::_Storage", i8 }>
%"union.std::_Optional_payload_base<int>::_Storage" = type { i32 }
%"class.std::shared_ptr" = type { %"class.std::__shared_ptr" }
%"class.std::__shared_ptr" = type { ptr, %"class.std::__shared_count" }
%"class.std::__shared_count" = type { ptr }
%"class.Luau::Set" = type { %"class.Luau::DenseHashMap.119", i64 }
%"class.Luau::DenseHashMap.119" = type { %"class.Luau::detail::DenseHashTable.120" }
%"class.Luau::detail::DenseHashTable.120" = type <{ ptr, i64, i64, %"struct.std::pair.106", [8 x i8] }>
%"class.Luau::DenseHashMap.122" = type { %"class.Luau::detail::DenseHashTable.123" }
%"class.Luau::detail::DenseHashTable.123" = type <{ ptr, i64, i64, %"struct.std::pair.106", [8 x i8] }>
%"struct.Luau::NotNull.125" = type { ptr }
%"class.Luau::DenseHashSet.126" = type { %"class.Luau::detail::DenseHashTable.127" }
%"class.Luau::detail::DenseHashTable.127" = type <{ ptr, i64, i64, %"class.std::__cxx11::basic_string", [8 x i8] }>
%"class.std::__cxx11::basic_string" = type { %"struct.std::__cxx11::basic_string<char>::_Alloc_hider", i64, %union.anon }
%"struct.std::__cxx11::basic_string<char>::_Alloc_hider" = type { ptr }
%union.anon = type { i64, [8 x i8] }
%"struct.Luau::NotNull.312" = type { ptr }
%"class.Luau::AstNode.base" = type <{ ptr, i32, %"struct.Luau::Location" }>
%"struct.Luau::Location" = type { %"struct.Luau::Position", %"struct.Luau::Position" }
%"struct.Luau::Position" = type { i32, i32 }
%"class.Luau::AstNode" = type <{ ptr, i32, %"struct.Luau::Location", [4 x i8] }>
%"class.Luau::AstExpr.base" = type { %"class.Luau::AstNode.base" }
%"class.Luau::AstExprGlobal" = type { %"class.Luau::AstExpr.base", %"struct.Luau::AstName" }
%"struct.Luau::AstName" = type { ptr }
%"class.std::optional.462" = type { %"struct.std::_Optional_base.463" }
%"struct.std::_Optional_base.463" = type { %"struct.std::_Optional_payload.465" }
%"struct.std::_Optional_payload.465" = type { %"struct.std::_Optional_payload_base.base.467", [7 x i8] }
%"struct.std::_Optional_payload_base.base.467" = type <{ %"union.std::_Optional_payload_base<const Luau::Type *>::_Storage", i8 }>
%"union.std::_Optional_payload_base<const Luau::Type *>::_Storage" = type { ptr }
%"class.__gnu_cxx::__normal_iterator" = type { ptr }
%"struct.Luau::Symbol" = type { ptr, %"struct.Luau::AstName" }
%"class.Luau::AstExprLocal" = type <{ %"class.Luau::AstExpr.base", [4 x i8], ptr, i8, [7 x i8] }>
%"struct.std::_Optional_payload_base.466" = type <{ %"union.std::_Optional_payload_base<const Luau::Type *>::_Storage", i8, [7 x i8] }>

@_ZN4Luau7AstRttiINS_12AstExprLocalEE5valueE = linkonce_odr dso_local global i32 0, comdat, align 4
@_ZN4Luau7AstRttiINS_13AstExprGlobalEE5valueE = linkonce_odr dso_local global i32 0, comdat, align 4

; Function Attrs: mustprogress nounwind uwtable
define linkonce_odr dso_local void @_ZNSt22_Optional_payload_baseIPKN4Luau4TypeEE8_StorageIS3_Lb1EEC2Ev(ptr noundef nonnull align 8 dereferenceable(8) %0) unnamed_addr #2 comdat align 2 {
  %2 = alloca ptr, align 8
  store ptr %0, ptr %2, align 8, !tbaa !2007
  ret void
}

; Function Attrs: mustprogress nounwind uwtable
define linkonce_odr dso_local void @_ZNSt22_Optional_payload_baseIPKN4Luau4TypeEEC2Ev(ptr noundef nonnull align 8 dereferenceable(9) %0) unnamed_addr #2 comdat align 2 {
  %2 = alloca ptr, align 8
  store ptr %0, ptr %2, align 8, !tbaa !1906
  %3 = load ptr, ptr %2, align 8
  %4 = getelementptr inbounds nuw %"struct.std::_Optional_payload_base.466", ptr %3, i32 0, i32 0
  call void @_ZNSt22_Optional_payload_baseIPKN4Luau4TypeEE8_StorageIS3_Lb1EEC2Ev(ptr noundef nonnull align 8 dereferenceable(8) %4) #4
  %5 = getelementptr inbounds nuw %"struct.std::_Optional_payload_base.466", ptr %3, i32 0, i32 1
  store i8 0, ptr %5, align 8, !tbaa !1916
  ret void
}

; Function Attrs: mustprogress nounwind uwtable
define linkonce_odr dso_local void @_ZNSt17_Optional_payloadIPKN4Luau4TypeELb1ELb1ELb1EEC2Ev(ptr noundef nonnull align 8 dereferenceable(9) %0) unnamed_addr #2 comdat align 2 {
  %2 = alloca ptr, align 8
  store ptr %0, ptr %2, align 8, !tbaa !2005
  %3 = load ptr, ptr %2, align 8
  call void @_ZNSt22_Optional_payload_baseIPKN4Luau4TypeEEC2Ev(ptr noundef nonnull align 8 dereferenceable(9) %3) #4
  ret void
}

; Function Attrs: mustprogress nounwind uwtable
define linkonce_odr dso_local void @_ZN9__gnu_cxx17__normal_iteratorIPN4Luau7NotNullINS1_5ScopeEEESt6vectorIS4_SaIS4_EEEC2ERKS5_(ptr noundef nonnull align 8 dereferenceable(8) %0, ptr noundef nonnull align 8 dereferenceable(8) %1) unnamed_addr #2 comdat align 2 {
  %3 = alloca ptr, align 8
  %4 = alloca ptr, align 8
  store ptr %0, ptr %3, align 8, !tbaa !598
  store ptr %1, ptr %4, align 8, !tbaa !2579
  %5 = load ptr, ptr %3, align 8
  %6 = getelementptr inbounds nuw %"class.__gnu_cxx::__normal_iterator", ptr %5, i32 0, i32 0
  %7 = load ptr, ptr %4, align 8, !tbaa !2579
  %8 = load ptr, ptr %7, align 8, !tbaa !600
  store ptr %8, ptr %6, align 8, !tbaa !601
  ret void
}

; Function Attrs: mustprogress nounwind uwtable
define linkonce_odr dso_local void @_ZNSt14_Optional_baseIPKN4Luau4TypeELb1ELb1EEC2Ev(ptr noundef nonnull align 8 dereferenceable(16) %0) unnamed_addr #2 comdat align 2 {
  %2 = alloca ptr, align 8
  store ptr %0, ptr %2, align 8, !tbaa !2003
  %3 = load ptr, ptr %2, align 8
  %4 = getelementptr inbounds nuw %"struct.std::_Optional_base.463", ptr %3, i32 0, i32 0
  call void @_ZNSt17_Optional_payloadIPKN4Luau4TypeELb1ELb1ELb1EEC2Ev(ptr noundef nonnull align 8 dereferenceable(9) %4) #4
  ret void
}

; Function Attrs: mustprogress nounwind uwtable
define linkonce_odr dso_local noundef i32 @_ZN4Luau13AstExprGlobal10ClassIndexEv() #2 comdat align 2 {
  %1 = load i32, ptr @_ZN4Luau7AstRttiINS_13AstExprGlobalEE5valueE, align 4, !tbaa !4
  ret i32 %1
}

; Function Attrs: mustprogress nounwind uwtable
define linkonce_odr dso_local void @_ZN4Luau7AstNameC2Ev(ptr noundef nonnull align 8 dereferenceable(8) %0) unnamed_addr #2 comdat align 2 {
  %2 = alloca ptr, align 8
  store ptr %0, ptr %2, align 8, !tbaa !320
  %3 = load ptr, ptr %2, align 8
  %4 = getelementptr inbounds nuw %"struct.Luau::AstName", ptr %3, i32 0, i32 0
  store ptr null, ptr %4, align 8, !tbaa !322
  ret void
}

; Function Attrs: mustprogress nounwind uwtable
define linkonce_odr dso_local noundef nonnull align 8 dereferenceable(8) ptr @_ZNK9__gnu_cxx17__normal_iteratorIPN4Luau7NotNullINS1_5ScopeEEESt6vectorIS4_SaIS4_EEEdeEv(ptr noundef nonnull align 8 dereferenceable(8) %0) #2 comdat align 2 {
  %2 = alloca ptr, align 8
  store ptr %0, ptr %2, align 8, !tbaa !598
  %3 = load ptr, ptr %2, align 8
  %4 = getelementptr inbounds nuw %"class.__gnu_cxx::__normal_iterator", ptr %3, i32 0, i32 0
  %5 = load ptr, ptr %4, align 8, !tbaa !601
  ret ptr %5
}

; Function Attrs: mustprogress nounwind uwtable
define linkonce_odr dso_local ptr @_ZNK9__gnu_cxx17__normal_iteratorIPN4Luau7NotNullINS1_5ScopeEEESt6vectorIS4_SaIS4_EEEmiEl(ptr noundef nonnull align 8 dereferenceable(8) %0, i64 noundef %1) #2 comdat align 2 {
  %3 = alloca %"class.__gnu_cxx::__normal_iterator", align 8
  %4 = alloca ptr, align 8
  %5 = alloca i64, align 8
  %6 = alloca ptr, align 8
  store ptr %0, ptr %4, align 8, !tbaa !598
  store i64 %1, ptr %5, align 8, !tbaa !33
  %7 = load ptr, ptr %4, align 8
  call void @llvm.lifetime.start.p0(i64 8, ptr %6) #4
  %8 = getelementptr inbounds nuw %"class.__gnu_cxx::__normal_iterator", ptr %7, i32 0, i32 0
  %9 = load ptr, ptr %8, align 8, !tbaa !601
  %10 = load i64, ptr %5, align 8, !tbaa !33
  %11 = sub i64 0, %10
  %12 = getelementptr inbounds %"struct.Luau::NotNull.312", ptr %9, i64 %11
  store ptr %12, ptr %6, align 8, !tbaa !600
  call void @_ZN9__gnu_cxx17__normal_iteratorIPN4Luau7NotNullINS1_5ScopeEEESt6vectorIS4_SaIS4_EEEC2ERKS5_(ptr noundef nonnull align 8 dereferenceable(8) %3, ptr noundef nonnull align 8 dereferenceable(8) %6) #4
  call void @llvm.lifetime.end.p0(i64 8, ptr %6) #4
  %13 = getelementptr inbounds nuw %"class.__gnu_cxx::__normal_iterator", ptr %3, i32 0, i32 0
  %14 = load ptr, ptr %13, align 8
  ret ptr %14
}

; Function Attrs: mustprogress nounwind uwtable
define linkonce_odr dso_local ptr @_ZNSt6vectorIN4Luau7NotNullINS0_5ScopeEEESaIS3_EE3endEv(ptr noundef nonnull align 8 dereferenceable(24) %0) #2 comdat align 2 {
  %2 = alloca %"class.__gnu_cxx::__normal_iterator", align 8
  %3 = alloca ptr, align 8
  store ptr %0, ptr %3, align 8, !tbaa !251
  %4 = load ptr, ptr %3, align 8
  %5 = getelementptr inbounds nuw %"struct.std::_Vector_base.41", ptr %4, i32 0, i32 0
  %6 = getelementptr inbounds nuw %"struct.std::_Vector_base<Luau::NotNull<Luau::Scope>, std::allocator<Luau::NotNull<Luau::Scope>>>::_Vector_impl_data", ptr %5, i32 0, i32 1
  call void @_ZN9__gnu_cxx17__normal_iteratorIPN4Luau7NotNullINS1_5ScopeEEESt6vectorIS4_SaIS4_EEEC2ERKS5_(ptr noundef nonnull align 8 dereferenceable(8) %2, ptr noundef nonnull align 8 dereferenceable(8) %6) #4
  %7 = getelementptr inbounds nuw %"class.__gnu_cxx::__normal_iterator", ptr %2, i32 0, i32 0
  %8 = load ptr, ptr %7, align 8
  ret ptr %8
}

; Function Attrs: mustprogress nounwind uwtable
define linkonce_odr dso_local noundef i32 @_ZN4Luau12AstExprLocal10ClassIndexEv() #2 comdat align 2 {
  %1 = load i32, ptr @_ZN4Luau7AstRttiINS_12AstExprLocalEE5valueE, align 4, !tbaa !4
  ret i32 %1
}

; Function Attrs: mustprogress nounwind uwtable
define linkonce_odr dso_local void @_ZNSt8optionalIPKN4Luau4TypeEEC2ESt9nullopt_t(ptr noundef nonnull align 8 dereferenceable(16) %0) unnamed_addr #2 comdat align 2 {
  %2 = alloca ptr, align 8
  store ptr %0, ptr %2, align 8, !tbaa !843
  %3 = load ptr, ptr %2, align 8
  call void @_ZNSt14_Optional_baseIPKN4Luau4TypeELb1ELb1EEC2Ev(ptr noundef nonnull align 8 dereferenceable(16) %3) #4
  ret void
}

; Function Attrs: mustprogress nounwind uwtable
define linkonce_odr dso_local void @_ZN4Luau6SymbolC2ERKNS_7AstNameE(ptr noundef nonnull align 8 dereferenceable(16) %0, ptr noundef nonnull align 8 dereferenceable(8) %1) unnamed_addr #2 comdat align 2 {
  %3 = alloca ptr, align 8
  %4 = alloca ptr, align 8
  store ptr %0, ptr %3, align 8, !tbaa !838
  store ptr %1, ptr %4, align 8, !tbaa !320
  %5 = load ptr, ptr %3, align 8
  %6 = getelementptr inbounds nuw %"struct.Luau::Symbol", ptr %5, i32 0, i32 0
  store ptr null, ptr %6, align 8, !tbaa !840
  %7 = getelementptr inbounds nuw %"struct.Luau::Symbol", ptr %5, i32 0, i32 1
  %8 = load ptr, ptr %4, align 8, !tbaa !320
  call void @llvm.memcpy.p0.p0.i64(ptr align 8 %7, ptr align 8 %8, i64 8, i1 false), !tbaa.struct !916
  ret void
}

; Function Attrs: mustprogress uwtable
define linkonce_odr dso_local noundef ptr @_ZN4Luau7AstNode2asINS_13AstExprGlobalEEEPT_v(ptr noundef nonnull align 8 dereferenceable(28) %0) #7 comdat align 2 {
  %2 = alloca ptr, align 8
  store ptr %0, ptr %2, align 8, !tbaa !317
  %3 = load ptr, ptr %2, align 8
  %4 = getelementptr inbounds nuw %"class.Luau::AstNode", ptr %3, i32 0, i32 1
  %5 = load i32, ptr %4, align 8, !tbaa !319
  %6 = call noundef i32 @_ZN4Luau13AstExprGlobal10ClassIndexEv()
  %7 = icmp eq i32 %5, %6
  br i1 %7, label %8, label %9

8:                                                ; preds = %1
  br label %10

9:                                                ; preds = %1
  br label %10

10:                                               ; preds = %9, %8
  %11 = phi ptr [ %3, %8 ], [ null, %9 ]
  ret ptr %11
}

; Function Attrs: mustprogress uwtable
define linkonce_odr dso_local void @_ZN4Luau6SymbolC2EPNS_8AstLocalE(ptr noundef nonnull align 8 dereferenceable(16) %0, ptr noundef %1) unnamed_addr #7 comdat align 2 {
  %3 = alloca ptr, align 8
  %4 = alloca ptr, align 8
  store ptr %0, ptr %3, align 8, !tbaa !838
  store ptr %1, ptr %4, align 8, !tbaa !680
  %5 = load ptr, ptr %3, align 8
  %6 = getelementptr inbounds nuw %"struct.Luau::Symbol", ptr %5, i32 0, i32 0
  %7 = load ptr, ptr %4, align 8, !tbaa !680
  store ptr %7, ptr %6, align 8, !tbaa !840
  %8 = getelementptr inbounds nuw %"struct.Luau::Symbol", ptr %5, i32 0, i32 1
  call void @_ZN4Luau7AstNameC2Ev(ptr noundef nonnull align 8 dereferenceable(8) %8)
  ret void
}

; Function Attrs: mustprogress nounwind uwtable
define linkonce_odr dso_local noundef ptr @_ZNK4Luau7NotNullINS_5ScopeEEcvPS1_Ev(ptr noundef nonnull align 8 dereferenceable(8) %0) #2 comdat align 2 {
  %2 = alloca ptr, align 8
  store ptr %0, ptr %2, align 8, !tbaa !600
  %3 = load ptr, ptr %2, align 8
  %4 = getelementptr inbounds nuw %"struct.Luau::NotNull.312", ptr %3, i32 0, i32 0
  %5 = load ptr, ptr %4, align 8, !tbaa !603
  ret ptr %5
}

; Function Attrs: mustprogress nounwind uwtable
define linkonce_odr dso_local noundef nonnull align 8 dereferenceable(8) ptr @_ZNSt6vectorIN4Luau7NotNullINS0_5ScopeEEESaIS3_EE4backEv(ptr noundef nonnull align 8 dereferenceable(24) %0) #2 comdat align 2 {
  %2 = alloca ptr, align 8
  %3 = alloca %"class.__gnu_cxx::__normal_iterator", align 8
  %4 = alloca %"class.__gnu_cxx::__normal_iterator", align 8
  store ptr %0, ptr %2, align 8, !tbaa !251
  %5 = load ptr, ptr %2, align 8
  call void @llvm.lifetime.start.p0(i64 8, ptr %3) #4
  call void @llvm.lifetime.start.p0(i64 8, ptr %4) #4
  %6 = call ptr @_ZNSt6vectorIN4Luau7NotNullINS0_5ScopeEEESaIS3_EE3endEv(ptr noundef nonnull align 8 dereferenceable(24) %5) #4
  %7 = getelementptr inbounds nuw %"class.__gnu_cxx::__normal_iterator", ptr %4, i32 0, i32 0
  store ptr %6, ptr %7, align 8
  %8 = call ptr @_ZNK9__gnu_cxx17__normal_iteratorIPN4Luau7NotNullINS1_5ScopeEEESt6vectorIS4_SaIS4_EEEmiEl(ptr noundef nonnull align 8 dereferenceable(8) %4, i64 noundef 1) #4
  %9 = getelementptr inbounds nuw %"class.__gnu_cxx::__normal_iterator", ptr %3, i32 0, i32 0
  store ptr %8, ptr %9, align 8
  %10 = call noundef nonnull align 8 dereferenceable(8) ptr @_ZNK9__gnu_cxx17__normal_iteratorIPN4Luau7NotNullINS1_5ScopeEEESt6vectorIS4_SaIS4_EEEdeEv(ptr noundef nonnull align 8 dereferenceable(8) %3) #4
  call void @llvm.lifetime.end.p0(i64 8, ptr %4) #4
  call void @llvm.lifetime.end.p0(i64 8, ptr %3) #4
  ret ptr %10
}

; Function Attrs: mustprogress uwtable
define linkonce_odr dso_local noundef ptr @_ZN4Luau7AstNode2asINS_12AstExprLocalEEEPT_v(ptr noundef nonnull align 8 dereferenceable(28) %0) #7 comdat align 2 {
  %2 = alloca ptr, align 8
  store ptr %0, ptr %2, align 8, !tbaa !317
  %3 = load ptr, ptr %2, align 8
  %4 = getelementptr inbounds nuw %"class.Luau::AstNode", ptr %3, i32 0, i32 1
  %5 = load i32, ptr %4, align 8, !tbaa !319
  %6 = call noundef i32 @_ZN4Luau12AstExprLocal10ClassIndexEv()
  %7 = icmp eq i32 %5, %6
  br i1 %7, label %8, label %9

8:                                                ; preds = %1
  br label %10

9:                                                ; preds = %1
  br label %10

10:                                               ; preds = %9, %8
  %11 = phi ptr [ %3, %8 ], [ null, %9 ]
  ret ptr %11
}

; Function Attrs: mustprogress uwtable
define dso_local { ptr, i8 } @_ZN4Luau12TypeChecker214getBindingTypeEPNS_7AstExprE(ptr noundef nonnull align 8 dereferenceable(784) %0, ptr noundef %1) #7 align 2 {
  %3 = alloca %"class.std::optional.462", align 8
  %4 = alloca ptr, align 8
  %5 = alloca ptr, align 8
  %6 = alloca ptr, align 8
  %7 = alloca ptr, align 8
  %8 = alloca %"struct.Luau::Symbol", align 8
  %9 = alloca i32, align 4
  %10 = alloca ptr, align 8
  %11 = alloca ptr, align 8
  %12 = alloca %"struct.Luau::Symbol", align 8
  store ptr %0, ptr %4, align 8, !tbaa !131
  store ptr %1, ptr %5, align 8, !tbaa !312
  %13 = load ptr, ptr %4, align 8
  call void @llvm.lifetime.start.p0(i64 8, ptr %6) #4
  %14 = load ptr, ptr %5, align 8, !tbaa !312
  %15 = call noundef ptr @_ZN4Luau7AstNode2asINS_12AstExprLocalEEEPT_v(ptr noundef nonnull align 8 dereferenceable(28) %14)
  store ptr %15, ptr %6, align 8, !tbaa !778
  %16 = load ptr, ptr %6, align 8, !tbaa !778
  %17 = icmp ne ptr %16, null
  br i1 %17, label %18, label %37

18:                                               ; preds = %2
  call void @llvm.lifetime.start.p0(i64 8, ptr %7) #4
  %19 = getelementptr inbounds nuw %"struct.Luau::TypeChecker2", ptr %13, i32 0, i32 9
  %20 = call noundef nonnull align 8 dereferenceable(8) ptr @_ZNSt6vectorIN4Luau7NotNullINS0_5ScopeEEESaIS3_EE4backEv(ptr noundef nonnull align 8 dereferenceable(24) %19) #4
  %21 = call noundef ptr @_ZNK4Luau7NotNullINS_5ScopeEEcvPS1_Ev(ptr noundef nonnull align 8 dereferenceable(8) %20) #4
  store ptr %21, ptr %7, align 8, !tbaa !357
  %22 = load ptr, ptr %7, align 8, !tbaa !357
  %23 = load ptr, ptr %6, align 8, !tbaa !778
  %24 = getelementptr inbounds nuw %"class.Luau::AstExprLocal", ptr %23, i32 0, i32 2
  %25 = load ptr, ptr %24, align 8, !tbaa !914
  call void @_ZN4Luau6SymbolC2EPNS_8AstLocalE(ptr noundef nonnull align 8 dereferenceable(16) %8, ptr noundef %25)
  %26 = getelementptr inbounds nuw { ptr, ptr }, ptr %8, i32 0, i32 0
  %27 = load ptr, ptr %26, align 8
  %28 = getelementptr inbounds nuw { ptr, ptr }, ptr %8, i32 0, i32 1
  %29 = load ptr, ptr %28, align 8
  %30 = call { ptr, i8 } @_ZNK4Luau5Scope6lookupENS_6SymbolE(ptr noundef nonnull align 8 dereferenceable(944) %22, ptr %27, ptr %29)
  %31 = getelementptr inbounds nuw %"class.std::optional.462", ptr %3, i32 0, i32 0
  %32 = getelementptr inbounds nuw %"struct.std::_Optional_base.463", ptr %31, i32 0, i32 0
  %33 = getelementptr inbounds nuw { ptr, i8 }, ptr %32, i32 0, i32 0
  %34 = extractvalue { ptr, i8 } %30, 0
  store ptr %34, ptr %33, align 8
  %35 = getelementptr inbounds nuw { ptr, i8 }, ptr %32, i32 0, i32 1
  %36 = extractvalue { ptr, i8 } %30, 1
  store i8 %36, ptr %35, align 8
  store i32 1, ptr %9, align 4
  call void @llvm.lifetime.end.p0(i64 8, ptr %7) #4
  br label %62

37:                                               ; preds = %2
  call void @llvm.lifetime.start.p0(i64 8, ptr %10) #4
  %38 = load ptr, ptr %5, align 8, !tbaa !312
  %39 = call noundef ptr @_ZN4Luau7AstNode2asINS_13AstExprGlobalEEEPT_v(ptr noundef nonnull align 8 dereferenceable(28) %38)
  store ptr %39, ptr %10, align 8, !tbaa !308
  %40 = load ptr, ptr %10, align 8, !tbaa !308
  %41 = icmp ne ptr %40, null
  br i1 %41, label %42, label %60

42:                                               ; preds = %37
  call void @llvm.lifetime.start.p0(i64 8, ptr %11) #4
  %43 = getelementptr inbounds nuw %"struct.Luau::TypeChecker2", ptr %13, i32 0, i32 9
  %44 = call noundef nonnull align 8 dereferenceable(8) ptr @_ZNSt6vectorIN4Luau7NotNullINS0_5ScopeEEESaIS3_EE4backEv(ptr noundef nonnull align 8 dereferenceable(24) %43) #4
  %45 = call noundef ptr @_ZNK4Luau7NotNullINS_5ScopeEEcvPS1_Ev(ptr noundef nonnull align 8 dereferenceable(8) %44) #4
  store ptr %45, ptr %11, align 8, !tbaa !357
  %46 = load ptr, ptr %11, align 8, !tbaa !357
  %47 = load ptr, ptr %10, align 8, !tbaa !308
  %48 = getelementptr inbounds nuw %"class.Luau::AstExprGlobal", ptr %47, i32 0, i32 1
  call void @_ZN4Luau6SymbolC2ERKNS_7AstNameE(ptr noundef nonnull align 8 dereferenceable(16) %12, ptr noundef nonnull align 8 dereferenceable(8) %48)
  %49 = getelementptr inbounds nuw { ptr, ptr }, ptr %12, i32 0, i32 0
  %50 = load ptr, ptr %49, align 8
  %51 = getelementptr inbounds nuw { ptr, ptr }, ptr %12, i32 0, i32 1
  %52 = load ptr, ptr %51, align 8
  %53 = call { ptr, i8 } @_ZNK4Luau5Scope6lookupENS_6SymbolE(ptr noundef nonnull align 8 dereferenceable(944) %46, ptr %50, ptr %52)
  %54 = getelementptr inbounds nuw %"class.std::optional.462", ptr %3, i32 0, i32 0
  %55 = getelementptr inbounds nuw %"struct.std::_Optional_base.463", ptr %54, i32 0, i32 0
  %56 = getelementptr inbounds nuw { ptr, i8 }, ptr %55, i32 0, i32 0
  %57 = extractvalue { ptr, i8 } %53, 0
  store ptr %57, ptr %56, align 8
  %58 = getelementptr inbounds nuw { ptr, i8 }, ptr %55, i32 0, i32 1
  %59 = extractvalue { ptr, i8 } %53, 1
  store i8 %59, ptr %58, align 8
  store i32 1, ptr %9, align 4
  call void @llvm.lifetime.end.p0(i64 8, ptr %11) #4
  br label %61

60:                                               ; preds = %37
  call void @_ZNSt8optionalIPKN4Luau4TypeEEC2ESt9nullopt_t(ptr noundef nonnull align 8 dereferenceable(16) %3) #4
  store i32 1, ptr %9, align 4
  br label %61

61:                                               ; preds = %60, %42
  call void @llvm.lifetime.end.p0(i64 8, ptr %10) #4
  br label %62

62:                                               ; preds = %61, %18
  call void @llvm.lifetime.end.p0(i64 8, ptr %6) #4
  %63 = getelementptr inbounds nuw %"class.std::optional.462", ptr %3, i32 0, i32 0
  %64 = getelementptr inbounds nuw %"struct.std::_Optional_base.463", ptr %63, i32 0, i32 0
  %65 = load { ptr, i8 }, ptr %64, align 8
  ret { ptr, i8 } %65
}