; Function Attrs: mustprogress uwtable
define dso_local { ptr, i8 } @_ZN4Luau12TypeChecker214getBindingTypeEPNS_7AstExprE(ptr noundef nonnull readonly align 8 captures(none) dereferenceable(784) %0, ptr noundef readonly %1) local_unnamed_addr #5 align 2 {
  %3 = getelementptr inbounds nuw i8, ptr %1, i64 8
  %4 = load i32, ptr %3, align 8, !tbaa !244
  %5 = load i32, ptr @_ZN4Luau7AstRttiINS_12AstExprLocalEE5valueE, align 4, !tbaa !4
  %6 = icmp ne i32 %4, %5
  %.not15 = icmp eq ptr %1, null
  %.not = or i1 %.not15, %6
  br i1 %.not, label %17, label %7

7:                                                ; preds = %2
  %8 = getelementptr inbounds nuw i8, ptr %0, i64 80
  %9 = load ptr, ptr %8, align 8, !tbaa !366
  %10 = getelementptr inbounds i8, ptr %9, i64 -8
  %11 = load ptr, ptr %10, align 8, !tbaa !573
  %12 = getelementptr inbounds nuw i8, ptr %1, i64 32
  %13 = load ptr, ptr %12, align 8, !tbaa !574
  %14 = tail call { ptr, i8 } @_ZNK4Luau5Scope6lookupENS_6SymbolE(ptr noundef nonnull align 8 dereferenceable(944) %11, ptr %13, ptr null)
  %15 = extractvalue { ptr, i8 } %14, 0
  %16 = extractvalue { ptr, i8 } %14, 1
  br label %31

17:                                               ; preds = %2
  %18 = load i32, ptr @_ZN4Luau7AstRttiINS_13AstExprGlobalEE5valueE, align 4, !tbaa !4
  %19 = icmp ne i32 %4, %18
  %.not10 = or i1 %.not15, %19
  br i1 %.not10, label %31, label %20

20:                                               ; preds = %17
  %21 = getelementptr inbounds nuw i8, ptr %0, i64 80
  %22 = load ptr, ptr %21, align 8, !tbaa !366
  %23 = getelementptr inbounds i8, ptr %22, i64 -8
  %24 = load ptr, ptr %23, align 8, !tbaa !573
  %25 = getelementptr inbounds nuw i8, ptr %1, i64 32
  %26 = load i64, ptr %25, align 8, !tbaa !576
  %27 = inttoptr i64 %26 to ptr
  %28 = tail call { ptr, i8 } @_ZNK4Luau5Scope6lookupENS_6SymbolE(ptr noundef nonnull align 8 dereferenceable(944) %24, ptr null, ptr %27)
  %29 = extractvalue { ptr, i8 } %28, 0
  %30 = extractvalue { ptr, i8 } %28, 1
  br label %31

31:                                               ; preds = %17, %20, %7
  %.sroa.014.0 = phi ptr [ %29, %20 ], [ %15, %7 ], [ undef, %17 ]
  %.sroa.3.0 = phi i8 [ %30, %20 ], [ %16, %7 ], [ 0, %17 ]
  %.fca.0.insert = insertvalue { ptr, i8 } poison, ptr %.sroa.014.0, 0
  %.fca.1.insert = insertvalue { ptr, i8 } %.fca.0.insert, i8 %.sroa.3.0, 1
  ret { ptr, i8 } %.fca.1.insert
}